target datalayout = "e-m:e-p270:32:32-p271:32:32-p272:64:64-i64:64-i128:128-f80:128-n8:16:32:64-S128"
target triple = "x86_64-pc-linux-gnu"

; Function Attrs: nounwind sspstrong uwtable
define hidden i32 @FLAC__bitreader_read_raw_int32(ptr noundef %0, ptr noundef %1, i32 noundef %2) #0 {
  %4 = alloca i32, align 4
  %5 = alloca ptr, align 8
  %6 = alloca ptr, align 8
  %7 = alloca i32, align 4
  %8 = alloca i32, align 4
  %9 = alloca i32, align 4
  %10 = alloca i32, align 4
  store ptr %0, ptr %5, align 8, !tbaa !3
  store ptr %1, ptr %6, align 8, !tbaa !33
  store i32 %2, ptr %7, align 4, !tbaa !32
  call void @llvm.lifetime.start.p0(i64 4, ptr %8) #10
  call void @llvm.lifetime.start.p0(i64 4, ptr %9) #10
  %11 = load i32, ptr %7, align 4, !tbaa !32
  %12 = icmp ult i32 %11, 1
  br i1 %12, label %18, label %13

13:                                               ; preds = %3
  %14 = load ptr, ptr %5, align 8, !tbaa !3
  %15 = load i32, ptr %7, align 4, !tbaa !32
  %16 = call i32 @FLAC__bitreader_read_raw_uint32(ptr noundef %14, ptr noundef %8, i32 noundef %15)
  %17 = icmp ne i32 %16, 0
  br i1 %17, label %19, label %18

18:                                               ; preds = %13, %3
  store i32 0, ptr %4, align 4
  store i32 1, ptr %10, align 4
  br label %37

19:                                               ; preds = %13
  %20 = load i32, ptr %7, align 4, !tbaa !32
  %21 = icmp uge i32 %20, 33
  br i1 %21, label %22, label %23

22:                                               ; preds = %19
  br label %28

23:                                               ; preds = %19
  %24 = load i32, ptr %7, align 4, !tbaa !32
  %25 = sub i32 %24, 1
  %26 = zext i32 %25 to i64
  %27 = shl i64 1, %26
  br label %28

28:                                               ; preds = %23, %22
  %29 = phi i64 [ 0, %22 ], [ %27, %23 ]
  %30 = trunc i64 %29 to i32
  store i32 %30, ptr %9, align 4, !tbaa !32
  %31 = load i32, ptr %8, align 4, !tbaa !32
  %32 = load i32, ptr %9, align 4, !tbaa !32
  %33 = xor i32 %31, %32
  %34 = load i32, ptr %9, align 4, !tbaa !32
  %35 = sub i32 %33, %34
  %36 = load ptr, ptr %6, align 8, !tbaa !33
  store i32 %35, ptr %36, align 4, !tbaa !32
  store i32 1, ptr %4, align 4
  store i32 1, ptr %10, align 4
  br label %37

37:                                               ; preds = %28, %18
  call void @llvm.lifetime.end.p0(i64 4, ptr %9) #10
  call void @llvm.lifetime.end.p0(i64 4, ptr %8) #10
  %38 = load i32, ptr %4, align 4
  ret i32 %38
}