; Function Attrs: nounwind sspstrong uwtable
define hidden range(i32 0, 2) i32 @FLAC__bitreader_read_raw_int32(ptr noundef captures(none) %0, ptr noundef writeonly captures(none) %1, i32 noundef %2) local_unnamed_addr #9 {
  %4 = alloca i32, align 4
  call void @llvm.lifetime.start.p0(i64 4, ptr nonnull %4) #21
  %5 = icmp eq i32 %2, 0
  br i1 %5, label %18, label %6

6:                                                ; preds = %3
  %7 = call i32 @FLAC__bitreader_read_raw_uint32(ptr noundef %0, ptr noundef nonnull %4, i32 noundef %2)
  %.not = icmp eq i32 %7, 0
  br i1 %.not, label %18, label %8

8:                                                ; preds = %6
  %9 = icmp ugt i32 %2, 32
  %10 = add i32 %2, -1
  %11 = zext nneg i32 %10 to i64
  %12 = shl nuw i64 1, %11
  %13 = trunc i64 %12 to i32
  %14 = select i1 %9, i32 0, i32 %13
  %15 = load i32, ptr %4, align 4, !tbaa !30
  %16 = xor i32 %15, %14
  %17 = sub i32 %16, %14
  store i32 %17, ptr %1, align 4, !tbaa !30
  br label %18

18:                                               ; preds = %3, %6, %8
  %.0 = phi i32 [ 1, %8 ], [ 0, %6 ], [ 0, %3 ]
  call void @llvm.lifetime.end.p0(i64 4, ptr nonnull %4) #21
  ret i32 %.0
}